; ModuleID = 'source-C-CXX/56/467.c'
source_filename = "source-C-CXX/56/467.c"
target datalayout = "e-m:e-p270:32:32-p271:32:32-p272:64:64-i64:64-f80:128-n8:16:32:64-S128"
target triple = "x86_64-pc-linux-gnu"

@.str = private unnamed_addr constant [3 x i8] c"%d\00", align 1
@.str.1 = private unnamed_addr constant [3 x i8] c"%s\00", align 1

; Function Attrs: nofree nounwind sspstrong uwtable
define dso_local i32 @main() local_unnamed_addr #0 {
  %1 = alloca i32, align 4
  %2 = alloca [32 x i8], align 16
  %3 = bitcast i32* %1 to i8*
  call void @llvm.lifetime.start.p0i8(i64 4, i8* nonnull %3) #5
  %4 = getelementptr inbounds [32 x i8], [32 x i8]* %2, i64 0, i64 0
  call void @llvm.lifetime.start.p0i8(i64 32, i8* nonnull %4) #5
  %5 = call i32 (i8*, ...) @__isoc99_scanf(i8* getelementptr inbounds ([3 x i8], [3 x i8]* @.str, i64 0, i64 0), i32* nonnull %1)
  %6 = load i32, i32* %1, align 4, !tbaa !5
  %7 = icmp sgt i32 %6, 0
  br i1 %7, label %8, label %62

8:                                                ; preds = %0, %57
  %9 = phi i32 [ %59, %57 ], [ 0, %0 ]
  %10 = call i32 (i8*, ...) @__isoc99_scanf(i8* getelementptr inbounds ([3 x i8], [3 x i8]* @.str.1, i64 0, i64 0), i8* nonnull %4)
  %11 = call i64 @strlen(i8* noundef nonnull %4) #6
  %12 = trunc i64 %11 to i32
  %13 = shl i64 %11, 32
  %14 = add i64 %13, -4294967296
  %15 = ashr exact i64 %14, 32
  %16 = getelementptr inbounds [32 x i8], [32 x i8]* %2, i64 0, i64 %15
  %17 = load i8, i8* %16, align 1, !tbaa !9
  switch i8 %17, label %28 [
    i8 121, label %23
    i8 114, label %18
  ]

18:                                               ; preds = %8
  %19 = icmp sgt i32 %12, 2
  br i1 %19, label %20, label %57

20:                                               ; preds = %18
  %21 = add i64 %11, 4294967294
  %22 = and i64 %21, 4294967295
  br label %41

23:                                               ; preds = %8
  %24 = icmp sgt i32 %12, 2
  br i1 %24, label %25, label %57

25:                                               ; preds = %23
  %26 = add i64 %11, 4294967294
  %27 = and i64 %26, 4294967295
  br label %33

28:                                               ; preds = %8
  %29 = icmp sgt i32 %12, 3
  br i1 %29, label %30, label %57

30:                                               ; preds = %28
  %31 = add i64 %11, 4294967293
  %32 = and i64 %31, 4294967295
  br label %49

33:                                               ; preds = %25, %33
  %34 = phi i64 [ 0, %25 ], [ %39, %33 ]
  %35 = getelementptr inbounds [32 x i8], [32 x i8]* %2, i64 0, i64 %34
  %36 = load i8, i8* %35, align 1, !tbaa !9
  %37 = sext i8 %36 to i32
  %38 = call i32 @putchar(i32 %37)
  %39 = add nuw nsw i64 %34, 1
  %40 = icmp eq i64 %39, %27
  br i1 %40, label %57, label %33, !llvm.loop !10

41:                                               ; preds = %20, %41
  %42 = phi i64 [ 0, %20 ], [ %47, %41 ]
  %43 = getelementptr inbounds [32 x i8], [32 x i8]* %2, i64 0, i64 %42
  %44 = load i8, i8* %43, align 1, !tbaa !9
  %45 = sext i8 %44 to i32
  %46 = call i32 @putchar(i32 %45)
  %47 = add nuw nsw i64 %42, 1
  %48 = icmp eq i64 %47, %22
  br i1 %48, label %57, label %41, !llvm.loop !12

49:                                               ; preds = %30, %49
  %50 = phi i64 [ 0, %30 ], [ %55, %49 ]
  %51 = getelementptr inbounds [32 x i8], [32 x i8]* %2, i64 0, i64 %50
  %52 = load i8, i8* %51, align 1, !tbaa !9
  %53 = sext i8 %52 to i32
  %54 = call i32 @putchar(i32 %53)
  %55 = add nuw nsw i64 %50, 1
  %56 = icmp eq i64 %55, %32
  br i1 %56, label %57, label %49, !llvm.loop !13

57:                                               ; preds = %41, %33, %49, %28, %18, %23
  %58 = call i32 @putchar(i32 10)
  %59 = add nuw nsw i32 %9, 1
  %60 = load i32, i32* %1, align 4, !tbaa !5
  %61 = icmp slt i32 %59, %60
  br i1 %61, label %8, label %62, !llvm.loop !14

62:                                               ; preds = %57, %0
  call void @llvm.lifetime.end.p0i8(i64 32, i8* nonnull %4) #5
  call void @llvm.lifetime.end.p0i8(i64 4, i8* nonnull %3) #5
  ret i32 0
}

; Function Attrs: argmemonly mustprogress nofree nosync nounwind willreturn
declare void @llvm.lifetime.start.p0i8(i64 immarg, i8* nocapture) #1

; Function Attrs: nofree nounwind
declare noundef i32 @__isoc99_scanf(i8* nocapture noundef readonly, ...) local_unnamed_addr #2

; Function Attrs: argmemonly mustprogress nofree nounwind readonly willreturn
declare i64 @strlen(i8* nocapture) local_unnamed_addr #3

; Function Attrs: argmemonly mustprogress nofree nosync nounwind willreturn
declare void @llvm.lifetime.end.p0i8(i64 immarg, i8* nocapture) #1

; Function Attrs: nofree nounwind
declare noundef i32 @putchar(i32 noundef) local_unnamed_addr #4


!llvm.module.flags = !{!0, !1, !2, !3}
!llvm.ident = !{!4}

!0 = !{i32 1, !"wchar_size", i32 4}
!1 = !{i32 7, !"PIC Level", i32 2}
!2 = !{i32 7, !"PIE Level", i32 2}
!3 = !{i32 7, !"uwtable", i32 1}
!4 = !{!"clang version 13.0.0"}
!5 = !{!6, !6, i64 0}
!6 = !{!"int", !7, i64 0}
!7 = !{!"omnipotent char", !8, i64 0}
!8 = !{!"Simple C/C++ TBAA"}
!9 = !{!7, !7, i64 0}
!10 = distinct !{!10, !11}
!11 = !{!"llvm.loop.mustprogress"}
!12 = distinct !{!12, !11}
!13 = distinct !{!13, !11}
!14 = distinct !{!14, !11}
